target datalayout = "e-m:e-p270:32:32-p271:32:32-p272:64:64-i64:64-i128:128-f80:128-n8:16:32:64-S128"
target triple = "x86_64-pc-linux-gnu"

; Function Attrs: mustprogress uwtable
define void @_Z19GenerateArchiveNamePwmPKwb(ptr noundef %0, i64 noundef %1, ptr noundef %2, i1 noundef zeroext %3) #0 {
  %5 = alloca ptr, align 8
  %6 = alloca i64, align 8
  %7 = alloca ptr, align 8
  %8 = alloca i8, align 1
  %9 = alloca [2048 x i32], align 16
  %10 = alloca i32, align 4
  %11 = alloca i8, align 1
  store ptr %0, ptr %5, align 8
  store i64 %1, ptr %6, align 8
  store ptr %2, ptr %7, align 8
  %12 = zext i1 %3 to i8
  store i8 %12, ptr %8, align 1
  store i32 1, ptr %10, align 4
  br label %13

13:                                               ; preds = %40, %4
  %14 = getelementptr inbounds [2048 x i32], ptr %9, i64 0, i64 0
  %15 = load ptr, ptr %5, align 8
  call void @_Z8wcsncpyzPwPKwm(ptr noundef %14, ptr noundef %15, i64 noundef 2048)
  store i8 0, ptr %11, align 1
  %16 = getelementptr inbounds [2048 x i32], ptr %9, i64 0, i64 0
  %17 = load ptr, ptr %7, align 8
  %18 = load i32, ptr %10, align 4
  call void @_ZL10GenArcNamePwmPKwjRb(ptr noundef %16, i64 noundef 2048, ptr noundef %17, i32 noundef %18, ptr noundef nonnull align 1 dereferenceable(1) %11)
  %19 = load i8, ptr %11, align 1
  %20 = trunc i8 %19 to i1
  br i1 %20, label %22, label %21

21:                                               ; preds = %13
  br label %43

22:                                               ; preds = %13
  %23 = getelementptr inbounds [2048 x i32], ptr %9, i64 0, i64 0
  %24 = call noundef zeroext i1 @_Z9FileExistPKw(ptr noundef %23)
  br i1 %24, label %40, label %25

25:                                               ; preds = %22
  %26 = load i8, ptr %8, align 1
  %27 = trunc i8 %26 to i1
  br i1 %27, label %39, label %28

28:                                               ; preds = %25
  %29 = load i32, ptr %10, align 4
  %30 = icmp ugt i32 %29, 1
  br i1 %30, label %31, label %39

31:                                               ; preds = %28
  %32 = getelementptr inbounds [2048 x i32], ptr %9, i64 0, i64 0
  %33 = load ptr, ptr %5, align 8
  %34 = call noundef ptr @_Z11NullToEmptyPKw(ptr noundef %33)
  call void @_Z8wcsncpyzPwPKwm(ptr noundef %32, ptr noundef %34, i64 noundef 2048)
  %35 = getelementptr inbounds [2048 x i32], ptr %9, i64 0, i64 0
  %36 = load ptr, ptr %7, align 8
  %37 = load i32, ptr %10, align 4
  %38 = sub i32 %37, 1
  call void @_ZL10GenArcNamePwmPKwjRb(ptr noundef %35, i64 noundef 2048, ptr noundef %36, i32 noundef %38, ptr noundef nonnull align 1 dereferenceable(1) %11)
  br label %39

39:                                               ; preds = %31, %28, %25
  br label %43

40:                                               ; preds = %22
  %41 = load i32, ptr %10, align 4
  %42 = add i32 %41, 1
  store i32 %42, ptr %10, align 4
  br label %13, !llvm.loop !25

43:                                               ; preds = %39, %21
  %44 = load ptr, ptr %5, align 8
  %45 = getelementptr inbounds [2048 x i32], ptr %9, i64 0, i64 0
  %46 = load i64, ptr %6, align 8
  call void @_Z8wcsncpyzPwPKwm(ptr noundef %44, ptr noundef %45, i64 noundef %46)
  ret void
}