; Function Attrs: mustprogress uwtable
define void @_Z19GenerateArchiveNamePwmPKwb(ptr noundef %0, i64 noundef %1, ptr noundef %2, i1 noundef zeroext %3) local_unnamed_addr #3 {
  %5 = alloca [2048 x i32], align 16
  %6 = alloca i8, align 1
  call void @_Z8wcsncpyzPwPKwm(ptr noundef nonnull %5, ptr noundef %0, i64 noundef 2048)
  store i8 0, ptr %6, align 1
  call fastcc void @_ZL10GenArcNamePwmPKwjRb(ptr noundef %5, ptr noundef %2, i32 noundef 1, ptr noundef nonnull align 1 dereferenceable(1) %6)
  %7 = load i8, ptr %6, align 1
  %8 = trunc i8 %7 to i1
  br i1 %8, label %.lr.ph, label %.loopexit

.lr.ph:                                           ; preds = %4, %15
  %.013 = phi i32 [ %16, %15 ], [ 1, %4 ]
  %9 = call noundef zeroext i1 @_Z9FileExistPKw(ptr noundef nonnull %5)
  br i1 %9, label %15, label %10

10:                                               ; preds = %.lr.ph
  %11 = icmp ult i32 %.013, 2
  %or.cond.not = select i1 %3, i1 true, i1 %11
  br i1 %or.cond.not, label %.loopexit, label %12

12:                                               ; preds = %10
  %13 = call noundef ptr @_Z11NullToEmptyPKw(ptr noundef %0)
  call void @_Z8wcsncpyzPwPKwm(ptr noundef nonnull %5, ptr noundef %13, i64 noundef 2048)
  %14 = add i32 %.013, -1
  call fastcc void @_ZL10GenArcNamePwmPKwjRb(ptr noundef %5, ptr noundef %2, i32 noundef %14, ptr noundef nonnull align 1 dereferenceable(1) %6)
  br label %.loopexit

15:                                               ; preds = %.lr.ph
  %16 = add i32 %.013, 1
  call void @_Z8wcsncpyzPwPKwm(ptr noundef nonnull %5, ptr noundef %0, i64 noundef 2048)
  store i8 0, ptr %6, align 1
  call fastcc void @_ZL10GenArcNamePwmPKwjRb(ptr noundef %5, ptr noundef %2, i32 noundef %16, ptr noundef nonnull align 1 dereferenceable(1) %6)
  %17 = load i8, ptr %6, align 1
  %18 = trunc i8 %17 to i1
  br i1 %18, label %.lr.ph, label %.loopexit, !llvm.loop !24

.loopexit:                                        ; preds = %15, %4, %10, %12
  call void @_Z8wcsncpyzPwPKwm(ptr noundef %0, ptr noundef nonnull %5, i64 noundef %1)
  ret void
}